target datalayout = "e-m:e-p270:32:32-p271:32:32-p272:64:64-i64:64-i128:128-f80:128-n8:16:32:64-S128"
target triple = "x86_64-pc-linux-gnu"

%"struct.LIEF::MachO::DyldChainedFixups::chained_starts_in_segment" = type { i32, i32, i16, i64, i32, i32, %"class.std::vector.24", %"class.std::vector.24", ptr }
%"class.std::vector.24" = type { %"struct.std::_Vector_base.25" }
%"struct.std::_Vector_base.25" = type { %"struct.std::_Vector_base<unsigned short, std::allocator<unsigned short>>::_Vector_impl" }
%"struct.std::_Vector_base<unsigned short, std::allocator<unsigned short>>::_Vector_impl" = type { %"struct.std::_Vector_base<unsigned short, std::allocator<unsigned short>>::_Vector_impl_data" }
%"struct.std::_Vector_base<unsigned short, std::allocator<unsigned short>>::_Vector_impl_data" = type { ptr, ptr, ptr }
%"struct.LIEF::MachO::details::dyld_chained_starts_in_segment" = type <{ i32, i16, i16, i64, i32, i16 }>

; Function Attrs: mustprogress nounwind uwtable
define linkonce_odr hidden void @_ZNSt15__new_allocatorItEC2Ev(ptr noundef nonnull align 1 dereferenceable(1) %0) unnamed_addr #1 comdat align 2 {
  %2 = alloca ptr, align 8
  store ptr %0, ptr %2, align 8
  ret void
}

; Function Attrs: mustprogress nounwind uwtable
define linkonce_odr hidden void @_ZNSt12_Vector_baseItSaItEE17_Vector_impl_dataC2Ev(ptr noundef nonnull align 8 dereferenceable(24) %0) unnamed_addr #1 comdat align 2 {
  %2 = alloca ptr, align 8
  store ptr %0, ptr %2, align 8
  %3 = load ptr, ptr %2, align 8
  %4 = getelementptr inbounds %"struct.std::_Vector_base<unsigned short, std::allocator<unsigned short>>::_Vector_impl_data", ptr %3, i32 0, i32 0
  store ptr null, ptr %4, align 8
  %5 = getelementptr inbounds %"struct.std::_Vector_base<unsigned short, std::allocator<unsigned short>>::_Vector_impl_data", ptr %3, i32 0, i32 1
  store ptr null, ptr %5, align 8
  %6 = getelementptr inbounds %"struct.std::_Vector_base<unsigned short, std::allocator<unsigned short>>::_Vector_impl_data", ptr %3, i32 0, i32 2
  store ptr null, ptr %6, align 8
  ret void
}

; Function Attrs: mustprogress nounwind uwtable
define linkonce_odr hidden void @_ZNSaItEC2Ev(ptr noundef nonnull align 1 dereferenceable(1) %0) unnamed_addr #1 comdat align 2 {
  %2 = alloca ptr, align 8
  store ptr %0, ptr %2, align 8
  %3 = load ptr, ptr %2, align 8
  call void @_ZNSt15__new_allocatorItEC2Ev(ptr noundef nonnull align 1 dereferenceable(1) %3) #16
  ret void
}

; Function Attrs: mustprogress nounwind uwtable
define linkonce_odr hidden void @_ZNSt12_Vector_baseItSaItEE12_Vector_implC2Ev(ptr noundef nonnull align 8 dereferenceable(24) %0) unnamed_addr #1 comdat align 2 {
  %2 = alloca ptr, align 8
  store ptr %0, ptr %2, align 8
  %3 = load ptr, ptr %2, align 8
  call void @_ZNSaItEC2Ev(ptr noundef nonnull align 1 dereferenceable(1) %3) #16
  call void @_ZNSt12_Vector_baseItSaItEE17_Vector_impl_dataC2Ev(ptr noundef nonnull align 8 dereferenceable(24) %3) #16
  ret void
}

; Function Attrs: mustprogress nounwind uwtable
define linkonce_odr hidden void @_ZNSt12_Vector_baseItSaItEEC2Ev(ptr noundef nonnull align 8 dereferenceable(24) %0) unnamed_addr #1 comdat align 2 {
  %2 = alloca ptr, align 8
  store ptr %0, ptr %2, align 8
  %3 = load ptr, ptr %2, align 8
  %4 = getelementptr inbounds %"struct.std::_Vector_base.25", ptr %3, i32 0, i32 0
  call void @_ZNSt12_Vector_baseItSaItEE12_Vector_implC2Ev(ptr noundef nonnull align 8 dereferenceable(24) %4) #16
  ret void
}

; Function Attrs: mustprogress nounwind uwtable
define linkonce_odr hidden void @_ZNSt6vectorItSaItEEC2Ev(ptr noundef nonnull align 8 dereferenceable(24) %0) unnamed_addr #1 comdat align 2 {
  %2 = alloca ptr, align 8
  store ptr %0, ptr %2, align 8
  %3 = load ptr, ptr %2, align 8
  call void @_ZNSt12_Vector_baseItSaItEEC2Ev(ptr noundef nonnull align 8 dereferenceable(24) %3) #16
  ret void
}

; Function Attrs: mustprogress nounwind uwtable
define void @_ZN4LIEF5MachO17DyldChainedFixups25chained_starts_in_segmentC2EjRKNS0_7details30dyld_chained_starts_in_segmentERNS0_14SegmentCommandE(ptr noundef nonnull align 8 dereferenceable(88) %0, i32 noundef %1, ptr noundef nonnull align 1 dereferenceable(22) %2, ptr noundef nonnull align 8 dereferenceable(216) %3) unnamed_addr #1 align 2 {
  %5 = alloca ptr, align 8
  %6 = alloca i32, align 4
  %7 = alloca ptr, align 8
  %8 = alloca ptr, align 8
  store ptr %0, ptr %5, align 8
  store i32 %1, ptr %6, align 4
  store ptr %2, ptr %7, align 8
  store ptr %3, ptr %8, align 8
  %9 = load ptr, ptr %5, align 8
  %10 = getelementptr inbounds %"struct.LIEF::MachO::DyldChainedFixups::chained_starts_in_segment", ptr %9, i32 0, i32 0
  %11 = load i32, ptr %6, align 4
  store i32 %11, ptr %10, align 8
  %12 = getelementptr inbounds %"struct.LIEF::MachO::DyldChainedFixups::chained_starts_in_segment", ptr %9, i32 0, i32 1
  %13 = load ptr, ptr %7, align 8
  %14 = getelementptr inbounds %"struct.LIEF::MachO::details::dyld_chained_starts_in_segment", ptr %13, i32 0, i32 0
  %15 = load i32, ptr %14, align 1
  store i32 %15, ptr %12, align 4
  %16 = getelementptr inbounds %"struct.LIEF::MachO::DyldChainedFixups::chained_starts_in_segment", ptr %9, i32 0, i32 2
  %17 = load ptr, ptr %7, align 8
  %18 = getelementptr inbounds %"struct.LIEF::MachO::details::dyld_chained_starts_in_segment", ptr %17, i32 0, i32 1
  %19 = load i16, ptr %18, align 1
  store i16 %19, ptr %16, align 8
  %20 = getelementptr inbounds %"struct.LIEF::MachO::DyldChainedFixups::chained_starts_in_segment", ptr %9, i32 0, i32 3
  %21 = load ptr, ptr %7, align 8
  %22 = getelementptr inbounds %"struct.LIEF::MachO::details::dyld_chained_starts_in_segment", ptr %21, i32 0, i32 3
  %23 = load i64, ptr %22, align 1
  store i64 %23, ptr %20, align 8
  %24 = getelementptr inbounds %"struct.LIEF::MachO::DyldChainedFixups::chained_starts_in_segment", ptr %9, i32 0, i32 4
  %25 = load ptr, ptr %7, align 8
  %26 = getelementptr inbounds %"struct.LIEF::MachO::details::dyld_chained_starts_in_segment", ptr %25, i32 0, i32 4
  %27 = load i32, ptr %26, align 1
  store i32 %27, ptr %24, align 8
  %28 = getelementptr inbounds %"struct.LIEF::MachO::DyldChainedFixups::chained_starts_in_segment", ptr %9, i32 0, i32 5
  %29 = load ptr, ptr %7, align 8
  %30 = getelementptr inbounds %"struct.LIEF::MachO::details::dyld_chained_starts_in_segment", ptr %29, i32 0, i32 2
  %31 = load i16, ptr %30, align 1
  %32 = zext i16 %31 to i32
  store i32 %32, ptr %28, align 4
  %33 = getelementptr inbounds %"struct.LIEF::MachO::DyldChainedFixups::chained_starts_in_segment", ptr %9, i32 0, i32 6
  call void @_ZNSt6vectorItSaItEEC2Ev(ptr noundef nonnull align 8 dereferenceable(24) %33) #16
  %34 = getelementptr inbounds %"struct.LIEF::MachO::DyldChainedFixups::chained_starts_in_segment", ptr %9, i32 0, i32 7
  call void @_ZNSt6vectorItSaItEEC2Ev(ptr noundef nonnull align 8 dereferenceable(24) %34) #16
  %35 = getelementptr inbounds %"struct.LIEF::MachO::DyldChainedFixups::chained_starts_in_segment", ptr %9, i32 0, i32 8
  %36 = load ptr, ptr %8, align 8
  store ptr %36, ptr %35, align 8
  ret void
}