; Function Attrs: mustprogress nofree norecurse nosync nounwind willreturn memory(argmem: readwrite) uwtable
define void @_ZN4LIEF5MachO17DyldChainedFixups25chained_starts_in_segmentC2EjRKNS0_7details30dyld_chained_starts_in_segmentERNS0_14SegmentCommandE(ptr nocapture noundef nonnull writeonly align 8 dereferenceable(88) %0, i32 noundef %1, ptr nocapture noundef nonnull readonly align 1 dereferenceable(22) %2, ptr noundef nonnull align 8 dereferenceable(216) %3) unnamed_addr #5 align 2 {
  store i32 %1, ptr %0, align 8
  %5 = getelementptr inbounds i8, ptr %0, i64 4
  %6 = load i32, ptr %2, align 1
  store i32 %6, ptr %5, align 4
  %7 = getelementptr inbounds i8, ptr %0, i64 8
  %8 = getelementptr inbounds i8, ptr %2, i64 4
  %9 = load i16, ptr %8, align 1
  store i16 %9, ptr %7, align 8
  %10 = getelementptr inbounds i8, ptr %0, i64 16
  %11 = getelementptr inbounds i8, ptr %2, i64 8
  %12 = load i64, ptr %11, align 1
  store i64 %12, ptr %10, align 8
  %13 = getelementptr inbounds i8, ptr %0, i64 24
  %14 = getelementptr inbounds i8, ptr %2, i64 16
  %15 = load i32, ptr %14, align 1
  store i32 %15, ptr %13, align 8
  %16 = getelementptr inbounds i8, ptr %0, i64 28
  %17 = getelementptr inbounds i8, ptr %2, i64 6
  %18 = load i16, ptr %17, align 1
  %19 = zext i16 %18 to i32
  store i32 %19, ptr %16, align 4
  %20 = getelementptr inbounds i8, ptr %0, i64 32
  %21 = getelementptr inbounds i8, ptr %0, i64 80
  tail call void @llvm.memset.p0.i64(ptr noundef nonnull align 8 dereferenceable(48) %20, i8 0, i64 48, i1 false)
  store ptr %3, ptr %21, align 8
  ret void
}